target datalayout = "e-m:e-p270:32:32-p271:32:32-p272:64:64-i64:64-i128:128-f80:128-n8:16:32:64-S128"
target triple = "x86_64-unknown-linux-gnu"

%"class.Imf_3_2::OpaqueAttribute" = type { %"class.Imf_3_2::Attribute", %"class.std::__cxx11::basic_string", i64, %"class.Imf_3_2::Array" }
%"class.Imf_3_2::Attribute" = type { ptr }
%"class.std::__cxx11::basic_string" = type { %"struct.std::__cxx11::basic_string<char>::_Alloc_hider", i64, %union.anon }
%"struct.std::__cxx11::basic_string<char>::_Alloc_hider" = type { ptr }
%union.anon = type { i64, [8 x i8] }
%"class.Imf_3_2::Array" = type { i64, ptr }

; Function Attrs: mustprogress nounwind uwtable
define linkonce_odr hidden void @_ZN7Imf_3_25ArrayIcED2Ev(ptr noundef nonnull align 8 dereferenceable(16) %this) unnamed_addr #5 comdat align 2 {
entry:
  %this.addr = alloca ptr, align 8
  store ptr %this, ptr %this.addr, align 8
  %this1 = load ptr, ptr %this.addr, align 8
  %_data = getelementptr inbounds %"class.Imf_3_2::Array", ptr %this1, i32 0, i32 1
  %0 = load ptr, ptr %_data, align 8
  %isnull = icmp eq ptr %0, null
  br i1 %isnull, label %delete.end, label %delete.notnull

delete.notnull:                                   ; preds = %entry
  call void @_ZdaPv(ptr noundef %0) #14
  br label %delete.end

delete.end:                                       ; preds = %delete.notnull, %entry
  ret void
}

; Function Attrs: mustprogress nounwind uwtable
define linkonce_odr hidden noundef ptr @_ZNK7Imf_3_25ArrayIcEcvPKcEv(ptr noundef nonnull align 8 dereferenceable(16) %this) #5 comdat align 2 {
entry:
  %this.addr = alloca ptr, align 8
  store ptr %this, ptr %this.addr, align 8
  %this1 = load ptr, ptr %this.addr, align 8
  %_data = getelementptr inbounds %"class.Imf_3_2::Array", ptr %this1, i32 0, i32 1
  %0 = load ptr, ptr %_data, align 8
  ret ptr %0
}

; Function Attrs: mustprogress nounwind uwtable
define linkonce_odr hidden noundef ptr @_ZN7Imf_3_25ArrayIcEcvPcEv(ptr noundef nonnull align 8 dereferenceable(16) %this) #5 comdat align 2 {
entry:
  %this.addr = alloca ptr, align 8
  store ptr %this, ptr %this.addr, align 8
  %this1 = load ptr, ptr %this.addr, align 8
  %_data = getelementptr inbounds %"class.Imf_3_2::Array", ptr %this1, i32 0, i32 1
  %0 = load ptr, ptr %_data, align 8
  ret ptr %0
}

; Function Attrs: mustprogress uwtable
define linkonce_odr hidden void @_ZN7Imf_3_25ArrayIcE11resizeEraseEl(ptr noundef nonnull align 8 dereferenceable(16) %this, i64 noundef %size) #4 comdat align 2 {
entry:
  %this.addr = alloca ptr, align 8
  %size.addr = alloca i64, align 8
  %tmp = alloca ptr, align 8
  store ptr %this, ptr %this.addr, align 8
  store i64 %size, ptr %size.addr, align 8
  %this1 = load ptr, ptr %this.addr, align 8
  %0 = load i64, ptr %size.addr, align 8
  %call = call noalias noundef nonnull ptr @_Znam(i64 noundef %0) #13
  store ptr %call, ptr %tmp, align 8
  %_data = getelementptr inbounds %"class.Imf_3_2::Array", ptr %this1, i32 0, i32 1
  %1 = load ptr, ptr %_data, align 8
  %isnull = icmp eq ptr %1, null
  br i1 %isnull, label %delete.end, label %delete.notnull

delete.notnull:                                   ; preds = %entry
  call void @_ZdaPv(ptr noundef %1) #14
  br label %delete.end

delete.end:                                       ; preds = %delete.notnull, %entry
  %2 = load i64, ptr %size.addr, align 8
  %_size = getelementptr inbounds %"class.Imf_3_2::Array", ptr %this1, i32 0, i32 0
  store i64 %2, ptr %_size, align 8
  %3 = load ptr, ptr %tmp, align 8
  %_data2 = getelementptr inbounds %"class.Imf_3_2::Array", ptr %this1, i32 0, i32 1
  store ptr %3, ptr %_data2, align 8
  ret void
}

; Function Attrs: mustprogress uwtable
define linkonce_odr hidden void @_ZN7Imf_3_25ArrayIcEC2El(ptr noundef nonnull align 8 dereferenceable(16) %this, i64 noundef %size) unnamed_addr #4 comdat align 2 {
entry:
  %this.addr = alloca ptr, align 8
  %size.addr = alloca i64, align 8
  store ptr %this, ptr %this.addr, align 8
  store i64 %size, ptr %size.addr, align 8
  %this1 = load ptr, ptr %this.addr, align 8
  %0 = load i64, ptr %size.addr, align 8
  %call = call noalias noundef nonnull ptr @_Znam(i64 noundef %0) #13
  %_data = getelementptr inbounds %"class.Imf_3_2::Array", ptr %this1, i32 0, i32 1
  store ptr %call, ptr %_data, align 8
  %1 = load i64, ptr %size.addr, align 8
  %_size = getelementptr inbounds %"class.Imf_3_2::Array", ptr %this1, i32 0, i32 0
  store i64 %1, ptr %_size, align 8
  ret void
}

; Function Attrs: mustprogress uwtable
define void @_ZN7Imf_3_215OpaqueAttributeC2ERKS0_(ptr noundef nonnull align 8 dereferenceable(64) %this, ptr noundef nonnull align 8 dereferenceable(64) %other) unnamed_addr #4 align 2 personality ptr @__gxx_personality_v0 {
entry:
  %this.addr = alloca ptr, align 8
  %other.addr = alloca ptr, align 8
  %exn.slot = alloca ptr, align 8
  %ehselector.slot = alloca i32, align 4
  store ptr %this, ptr %this.addr, align 8
  store ptr %other, ptr %other.addr, align 8
  %this1 = load ptr, ptr %this.addr, align 8
  call void @_ZN7Imf_3_29AttributeC2Ev(ptr noundef nonnull align 8 dereferenceable(8) %this1)
  store ptr getelementptr inbounds ({ [9 x ptr] }, ptr @_ZTVN7Imf_3_215OpaqueAttributeE, i32 0, i32 0, i32 2), ptr %this1, align 8
  %_typeName = getelementptr inbounds %"class.Imf_3_2::OpaqueAttribute", ptr %this1, i32 0, i32 1
  %0 = load ptr, ptr %other.addr, align 8
  %_typeName2 = getelementptr inbounds %"class.Imf_3_2::OpaqueAttribute", ptr %0, i32 0, i32 1
  invoke void @_ZNSt7__cxx1112basic_stringIcSt11char_traitsIcESaIcEEC1ERKS4_(ptr noundef nonnull align 8 dereferenceable(32) %_typeName, ptr noundef nonnull align 8 dereferenceable(32) %_typeName2)
          to label %invoke.cont unwind label %lpad

invoke.cont:                                      ; preds = %entry
  %_dataSize = getelementptr inbounds %"class.Imf_3_2::OpaqueAttribute", ptr %this1, i32 0, i32 2
  %1 = load ptr, ptr %other.addr, align 8
  %_dataSize3 = getelementptr inbounds %"class.Imf_3_2::OpaqueAttribute", ptr %1, i32 0, i32 2
  %2 = load i64, ptr %_dataSize3, align 8
  store i64 %2, ptr %_dataSize, align 8
  %_data = getelementptr inbounds %"class.Imf_3_2::OpaqueAttribute", ptr %this1, i32 0, i32 3
  %3 = load ptr, ptr %other.addr, align 8
  %_dataSize4 = getelementptr inbounds %"class.Imf_3_2::OpaqueAttribute", ptr %3, i32 0, i32 2
  %4 = load i64, ptr %_dataSize4, align 8
  invoke void @_ZN7Imf_3_25ArrayIcEC2El(ptr noundef nonnull align 8 dereferenceable(16) %_data, i64 noundef %4)
          to label %invoke.cont6 unwind label %lpad5

invoke.cont6:                                     ; preds = %invoke.cont
  %_data7 = getelementptr inbounds %"class.Imf_3_2::OpaqueAttribute", ptr %this1, i32 0, i32 3
  %5 = load ptr, ptr %other.addr, align 8
  %_dataSize8 = getelementptr inbounds %"class.Imf_3_2::OpaqueAttribute", ptr %5, i32 0, i32 2
  %6 = load i64, ptr %_dataSize8, align 8
  invoke void @_ZN7Imf_3_25ArrayIcE11resizeEraseEl(ptr noundef nonnull align 8 dereferenceable(16) %_data7, i64 noundef %6)
          to label %invoke.cont10 unwind label %lpad9

invoke.cont10:                                    ; preds = %invoke.cont6
  %_data11 = getelementptr inbounds %"class.Imf_3_2::OpaqueAttribute", ptr %this1, i32 0, i32 3
  %call = invoke noundef ptr @_ZN7Imf_3_25ArrayIcEcvPcEv(ptr noundef nonnull align 8 dereferenceable(16) %_data11)
          to label %invoke.cont12 unwind label %lpad9

invoke.cont12:                                    ; preds = %invoke.cont10
  %7 = load ptr, ptr %other.addr, align 8
  %_data13 = getelementptr inbounds %"class.Imf_3_2::OpaqueAttribute", ptr %7, i32 0, i32 3
  %call15 = invoke noundef ptr @_ZNK7Imf_3_25ArrayIcEcvPKcEv(ptr noundef nonnull align 8 dereferenceable(16) %_data13)
          to label %invoke.cont14 unwind label %lpad9

invoke.cont14:                                    ; preds = %invoke.cont12
  %8 = load ptr, ptr %other.addr, align 8
  %_dataSize16 = getelementptr inbounds %"class.Imf_3_2::OpaqueAttribute", ptr %8, i32 0, i32 2
  %9 = load i64, ptr %_dataSize16, align 8
  call void @llvm.memcpy.p0.p0.i64(ptr align 1 %call, ptr align 1 %call15, i64 %9, i1 false)
  ret void

lpad:                                             ; preds = %entry
  %10 = landingpad { ptr, i32 }
          cleanup
  %11 = extractvalue { ptr, i32 } %10, 0
  store ptr %11, ptr %exn.slot, align 8
  %12 = extractvalue { ptr, i32 } %10, 1
  store i32 %12, ptr %ehselector.slot, align 4
  br label %ehcleanup17

lpad5:                                            ; preds = %invoke.cont
  %13 = landingpad { ptr, i32 }
          cleanup
  %14 = extractvalue { ptr, i32 } %13, 0
  store ptr %14, ptr %exn.slot, align 8
  %15 = extractvalue { ptr, i32 } %13, 1
  store i32 %15, ptr %ehselector.slot, align 4
  br label %ehcleanup

lpad9:                                            ; preds = %invoke.cont12, %invoke.cont10, %invoke.cont6
  %16 = landingpad { ptr, i32 }
          cleanup
  %17 = extractvalue { ptr, i32 } %16, 0
  store ptr %17, ptr %exn.slot, align 8
  %18 = extractvalue { ptr, i32 } %16, 1
  store i32 %18, ptr %ehselector.slot, align 4
  call void @_ZN7Imf_3_25ArrayIcED2Ev(ptr noundef nonnull align 8 dereferenceable(16) %_data) #3
  br label %ehcleanup

ehcleanup:                                        ; preds = %lpad9, %lpad5
  call void @_ZNSt7__cxx1112basic_stringIcSt11char_traitsIcESaIcEED1Ev(ptr noundef nonnull align 8 dereferenceable(32) %_typeName) #3
  br label %ehcleanup17

ehcleanup17:                                      ; preds = %ehcleanup, %lpad
  call void @_ZN7Imf_3_29AttributeD2Ev(ptr noundef nonnull align 8 dereferenceable(8) %this1) #3
  br label %eh.resume

eh.resume:                                        ; preds = %ehcleanup17
  %exn = load ptr, ptr %exn.slot, align 8
  %sel = load i32, ptr %ehselector.slot, align 4
  %lpad.val = insertvalue { ptr, i32 } poison, ptr %exn, 0
  %lpad.val18 = insertvalue { ptr, i32 } %lpad.val, i32 %sel, 1
  resume { ptr, i32 } %lpad.val18
}