; Function Attrs: mustprogress uwtable
define void @_ZN7Imf_3_215OpaqueAttributeC2ERKS0_(ptr noundef nonnull align 8 dereferenceable(64) %this, ptr noundef nonnull align 8 dereferenceable(64) %other) unnamed_addr #3 align 2 personality ptr @__gxx_personality_v0 {
entry:
  tail call void @_ZN7Imf_3_29AttributeC2Ev(ptr noundef nonnull align 8 dereferenceable(8) %this)
  store ptr getelementptr inbounds ({ [9 x ptr] }, ptr @_ZTVN7Imf_3_215OpaqueAttributeE, i64 0, i32 0, i64 2), ptr %this, align 8
  %_typeName = getelementptr inbounds i8, ptr %this, i64 8
  %_typeName2 = getelementptr inbounds i8, ptr %other, i64 8
  invoke void @_ZNSt7__cxx1112basic_stringIcSt11char_traitsIcESaIcEEC1ERKS4_(ptr noundef nonnull align 8 dereferenceable(32) %_typeName, ptr noundef nonnull align 8 dereferenceable(32) %_typeName2)
          to label %invoke.cont unwind label %lpad

invoke.cont:                                      ; preds = %entry
  %_dataSize = getelementptr inbounds i8, ptr %this, i64 40
  %_dataSize3 = getelementptr inbounds i8, ptr %other, i64 40
  %0 = load i64, ptr %_dataSize3, align 8
  store i64 %0, ptr %_dataSize, align 8
  %_data = getelementptr inbounds i8, ptr %this, i64 48
  %call.i8 = invoke noalias noundef nonnull ptr @_Znam(i64 noundef %0) #17
          to label %invoke.cont6 unwind label %lpad5

invoke.cont6:                                     ; preds = %invoke.cont
  %_data.i = getelementptr inbounds i8, ptr %this, i64 56
  store ptr %call.i8, ptr %_data.i, align 8
  store i64 %0, ptr %_data, align 8
  %1 = load i64, ptr %_dataSize3, align 8
  %call.i10 = invoke noalias noundef nonnull ptr @_Znam(i64 noundef %1) #17
          to label %invoke.cont10 unwind label %_ZN7Imf_3_25ArrayIcED2Ev.exit

invoke.cont10:                                    ; preds = %invoke.cont6
  tail call void @_ZdaPv(ptr noundef nonnull %call.i8) #18
  store i64 %1, ptr %_data, align 8
  store ptr %call.i10, ptr %_data.i, align 8
  %_data.i12 = getelementptr inbounds i8, ptr %other, i64 56
  %2 = load ptr, ptr %_data.i12, align 8
  %3 = load i64, ptr %_dataSize3, align 8
  tail call void @llvm.memcpy.p0.p0.i64(ptr nonnull align 1 %call.i10, ptr align 1 %2, i64 %3, i1 false)
  ret void

lpad:                                             ; preds = %entry
  %4 = landingpad { ptr, i32 }
          cleanup
  br label %ehcleanup17

lpad5:                                            ; preds = %invoke.cont
  %5 = landingpad { ptr, i32 }
          cleanup
  br label %ehcleanup

_ZN7Imf_3_25ArrayIcED2Ev.exit:                    ; preds = %invoke.cont6
  %6 = landingpad { ptr, i32 }
          cleanup
  tail call void @_ZdaPv(ptr noundef nonnull %call.i8) #18
  br label %ehcleanup

ehcleanup:                                        ; preds = %_ZN7Imf_3_25ArrayIcED2Ev.exit, %lpad5
  %.pn = phi { ptr, i32 } [ %6, %_ZN7Imf_3_25ArrayIcED2Ev.exit ], [ %5, %lpad5 ]
  tail call void @_ZNSt7__cxx1112basic_stringIcSt11char_traitsIcESaIcEED1Ev(ptr noundef nonnull align 8 dereferenceable(32) %_typeName) #15
  br label %ehcleanup17

ehcleanup17:                                      ; preds = %ehcleanup, %lpad
  %.pn.pn = phi { ptr, i32 } [ %.pn, %ehcleanup ], [ %4, %lpad ]
  tail call void @_ZN7Imf_3_29AttributeD2Ev(ptr noundef nonnull align 8 dereferenceable(8) %this) #15
  resume { ptr, i32 } %.pn.pn
}